Microsoft (R) COFF/PE Dumper Version 14.44.35217.0
Copyright (C) Microsoft Corporation.  All rights reserved.


Dump of file Spout.dll

File Type: DLL

  Section contains the following exports for Spout.dll

    00000000 characteristics
    FFFFFFFF time date stamp
        0.00 version
           1 ordinal base
         592 number of functions
         592 number of names

    ordinal hint RVA      name

          1    0 000017B0 ??0Spout@@QEAA@AEBV0@@Z
          2    1 00001860 ??0Spout@@QEAA@XZ
          3    2 00015F10 ??0SpoutReceiver@@QEAA@AEBV0@@Z
          4    3 00015F30 ??0SpoutReceiver@@QEAA@XZ
          5    4 00015F10 ??0SpoutSender@@QEAA@AEBV0@@Z
          6    5 00015F30 ??0SpoutSender@@QEAA@XZ
          7    6 0001BDB0 ??0SpoutSharedMemory@@QEAA@XZ
          8    7 00006A80 ??0spoutCopy@@QEAA@XZ
          9    8 0000A750 ??0spoutDirectX@@QEAA@XZ
         10    9 0000D4C0 ??0spoutFrameCount@@QEAA@XZ
         11    A 00001980 ??0spoutGL@@QEAA@AEBV0@@Z
         12    B 0000ECD0 ??0spoutGL@@QEAA@XZ
         13    C 00016D50 ??0spoutSenderNames@@QEAA@XZ
         14    D 00001F40 ??1Spout@@UEAA@XZ
         15    E 00015F50 ??1SpoutReceiver@@QEAA@XZ
         16    F 00015F50 ??1SpoutSender@@QEAA@XZ
         17   10 0001BDD0 ??1SpoutSharedMemory@@QEAA@XZ
         18   11 00006C20 ??1spoutCopy@@QEAA@XZ
         19   12 0000A780 ??1spoutDirectX@@QEAA@XZ
         20   13 0000D650 ??1spoutFrameCount@@QEAA@XZ
         21   14 0000F130 ??1spoutGL@@UEAA@XZ
         22   15 00017030 ??1spoutSenderNames@@QEAA@XZ
         23   16 000020A0 ??4Spout@@QEAAAEAV0@AEBV0@@Z
         24   17 000020A0 ??4SpoutReceiver@@QEAAAEAV0@AEBV0@@Z
         25   18 000020A0 ??4SpoutSender@@QEAAAEAV0@AEBV0@@Z
         26   19 00002110 ??4SpoutSharedMemory@@QEAAAEAV0@AEBV0@@Z
         27   1A 00002130 ??4spoutCopy@@QEAAAEAV0@AEBV0@@Z
         28   1B 00002150 ??4spoutDirectX@@QEAAAEAV0@AEBV0@@Z
         29   1C 00002180 ??4spoutFrameCount@@QEAAAEAV0@AEBV0@@Z
         30   1D 000021F0 ??4spoutGL@@QEAAAEAV0@AEBV0@@Z
         31   1E 00002730 ??4spoutSenderNames@@QEAAAEAV0@AEBV0@@Z
         32   1F 0002AC88 ??_7Spout@@6B@
         33   20 0002AC78 ??_7spoutGL@@6B@
         34   21 000028F0 ?AdapterName@Spout@@QEAAPEADXZ
         35   22 00015F60 ?AdapterName@SpoutReceiver@@QEAAPEADXZ
         36   23 00015F60 ?AdapterName@SpoutSender@@QEAAPEADXZ
         37   24 0000D6F0 ?AllowAccess@spoutFrameCount@@QEAAXXZ
         38   25 0000D700 ?AllowKeyedAccess@spoutFrameCount@@IEAA_NPEAUID3D11Texture2D@@@Z
         39   26 0000D760 ?AllowTextureAccess@spoutFrameCount@@QEAA_NPEAUID3D11Texture2D@@@Z
         40   27 00015F70 ?BindSharedTexture@SpoutReceiver@@QEAA_NXZ
         41   28 00015F70 ?BindSharedTexture@SpoutSender@@QEAA_NXZ
         42   29 0000F200 ?BindSharedTexture@spoutGL@@QEAA_NXZ
         43   2A 0000D7F0 ?CheckAccess@spoutFrameCount@@QEAA_NXZ
         44   2B 0000D860 ?CheckFrameSync@spoutFrameCount@@QEAA_NXZ
         45   2C 0000D8F0 ?CheckKeyedAccess@spoutFrameCount@@IEAA_NPEAUID3D11Texture2D@@@Z
         46   2D 0000F2D0 ?CheckOpenGLTexture@spoutGL@@IEAAXAEAIIII@Z
         47   2E 00002930 ?CheckReceiver@Spout@@QEAA_NPEADAEAI1AEA_N@Z
         48   2F 00015F80 ?CheckReceiver@SpoutReceiver@@QEAA_NPEADAEAI1AEA_N@Z
         49   30 00006D70 ?CheckSSE@spoutCopy@@IEAAXXZ
         50   31 000029B0 ?CheckSender@Spout@@IEAA_NII@Z
         51   32 00017210 ?CheckSender@spoutSenderNames@@QEAA_NPEBDAEAI1AEAPEAXAEAK@Z
         52   33 00015F90 ?CheckSenderPanel@SpoutReceiver@@QEAA_NPEADH@Z
         53   34 00002D90 ?CheckSpoutPanel@Spout@@QEAA_NPEADH@Z
         54   35 0000F370 ?CheckStagingTextures@spoutGL@@IEAA_NIIH@Z
         55   36 0000D9B0 ?CheckTextureAccess@spoutFrameCount@@QEAA_NPEAUID3D11Texture2D@@@Z
         56   37 00017320 ?CleanSenders@spoutSenderNames@@QEAAXXZ
         57   38 0000F520 ?CleanupDX11@spoutGL@@QEAAXXZ
         58   39 0000F660 ?CleanupDirectX@spoutGL@@QEAAXXZ
         59   3A 0000DA00 ?CleanupFrameCount@spoutFrameCount@@QEAAXXZ
         60   3B 0000F670 ?CleanupGL@spoutGL@@IEAAXXZ
         61   3C 0000F840 ?CleanupInterop@spoutGL@@QEAA_NXZ
         62   3D 00006DC0 ?ClearAlpha@spoutCopy@@QEBAXPEAEIIE@Z
         63   3E 0001BDE0 ?Close@SpoutSharedMemory@@QEAAXXZ
         64   3F 0000DAB0 ?CloseAccessMutex@spoutFrameCount@@QEAAXXZ
         65   40 0000A7A0 ?CloseDirectX11@spoutDirectX@@QEAAXXZ
         66   41 0000F970 ?CloseDirectX@spoutGL@@QEAAXXZ
         67   42 00003000 ?CloseFrameSync@Spout@@QEAAXXZ
         68   43 00015FA0 ?CloseFrameSync@SpoutReceiver@@QEAAXXZ
         69   44 00015FA0 ?CloseFrameSync@SpoutSender@@QEAAXXZ
         70   45 0000DAE0 ?CloseFrameSync@spoutFrameCount@@QEAAXXZ
         71   46 00015FB0 ?CloseOpenGL@SpoutReceiver@@QEAA_NXZ
         72   47 00015FB0 ?CloseOpenGL@SpoutSender@@QEAA_NXZ
         73   48 0000F9E0 ?CloseOpenGL@spoutGL@@QEAA_NXZ
         74   49 0001D5C0 ?CloseSpoutConsole@spoututils@@YAX_N@Z
         75   4A 00006DF0 ?CopyPixels@spoutCopy@@QEBAXPEBEPEAEIII_N@Z
         76   4B 00015FC0 ?CopyTexture@SpoutReceiver@@QEAA_NIIIIII_NI@Z
         77   4C 00015FC0 ?CopyTexture@SpoutSender@@QEAA_NIIIIII_NI@Z
         78   4D 0000FAF0 ?CopyTexture@spoutGL@@QEAA_NIIIIII_NI@Z
         79   4E 0001D630 ?CopyToClipBoard@spoututils@@YA_NPEAUHWND__@@PEBD@Z
         80   4F 0001BE50 ?Create@SpoutSharedMemory@@QEAA?AW4SpoutCreateResult@@PEBDH@Z
         81   50 0000DB20 ?CreateAccessMutex@spoutFrameCount@@QEAA_NPEBD@Z
         82   51 0000A860 ?CreateDX11StagingTexture@spoutDirectX@@QEAA_NPEAUID3D11Device@@IIW4DXGI_FORMAT@@PEAPEAUID3D11Texture2D@@@Z
         83   52 0000AB80 ?CreateDX11Texture@spoutDirectX@@QEAA_NPEAUID3D11Device@@IIW4DXGI_FORMAT@@IIPEAPEAUID3D11Texture2D@@@Z
         84   53 0000ADC0 ?CreateDX11Texture@spoutDirectX@@QEAA_NPEAUID3D11Device@@IIW4DXGI_FORMAT@@PEAPEAUID3D11Texture2D@@@Z
         85   54 0000AFF0 ?CreateDX11device@spoutDirectX@@QEAAPEAUID3D11Device@@XZ
         86   55 0000FF50 ?CreateInterop@spoutGL@@IEAA_NIIK_N@Z
         87   56 00016510 ?CreateMemoryBuffer@SpoutSender@@QEAA_NPEBDH@Z
         88   57 00010230 ?CreateMemoryBuffer@spoutGL@@QEAA_NPEBDH@Z
         89   58 00015FD0 ?CreateOpenGL@SpoutReceiver@@QEAA_NXZ
         90   59 00015FD0 ?CreateOpenGL@SpoutSender@@QEAA_NXZ
         91   5A 000103D0 ?CreateOpenGL@spoutGL@@QEAA_NPEAUHWND__@@@Z
         92   5B 00003010 ?CreateReceiver@Spout@@QEAA_NPEADAEAI1@Z
         93   5C 00015FE0 ?CreateReceiver@SpoutReceiver@@QEAA_NPEADAEAI1@Z
         94   5D 000030D0 ?CreateSender@Spout@@QEAA_NPEBDIIK@Z
         95   5E 00016520 ?CreateSender@SpoutSender@@QEAA_NPEBDIIK@Z
         96   5F 00017750 ?CreateSender@spoutSenderNames@@QEAA_NPEADIIPEAXK@Z
         97   60 000177F0 ?CreateSenderSet@spoutSenderNames@@IEAA_NXZ
         98   61 0000B180 ?CreateSharedDX11Texture@spoutDirectX@@QEAA_NPEAUID3D11Device@@IIW4DXGI_FORMAT@@PEAPEAUID3D11Texture2D@@AEAPEAX_N4@Z
         99   62 00015FF0 ?DX11format@SpoutReceiver@@QEAA?AW4DXGI_FORMAT@@H@Z
        100   63 00015FF0 ?DX11format@SpoutSender@@QEAA?AW4DXGI_FORMAT@@H@Z
        101   64 000106A0 ?DX11format@spoutGL@@QEAA?AW4DXGI_FORMAT@@H@Z
        102   65 0001C030 ?Debug@SpoutSharedMemory@@QEAAXXZ
        103   66 0000B640 ?DebugLog@spoutDirectX@@IEAAXPEAUID3D11Device@@PEBDZZ
        104   67 00016530 ?DeleteMemoryBuffer@SpoutSender@@QEAA_NXZ
        105   68 00010700 ?DeleteMemoryBuffer@spoutGL@@QEAA_NXZ
        106   69 00003130 ?DisableFrameCount@Spout@@QEAAXXZ
        107   6A 00016000 ?DisableFrameCount@SpoutReceiver@@QEAAXXZ
        108   6B 00016000 ?DisableFrameCount@SpoutSender@@QEAAXXZ
        109   6C 0000DC20 ?DisableFrameCount@spoutFrameCount@@QEAAXXZ
        110   6D 0001D700 ?DisableLogs@spoututils@@YAXXZ
        111   6E 0001D710 ?DisableSpoutLog@spoututils@@YAXXZ
        112   6F 0001D7D0 ?DisableSpoutLogFile@spoututils@@YAXXZ
        113   70 0001D850 ?ElapsedMicroseconds@spoututils@@YANXZ
        114   71 0000DC40 ?EnableFrameCount@spoutFrameCount@@QEAAXPEBD@Z
        115   72 00003140 ?EnableFrameSync@Spout@@QEAAX_N@Z
        116   73 00016010 ?EnableFrameSync@SpoutReceiver@@QEAAX_N@Z
        117   74 00016010 ?EnableFrameSync@SpoutSender@@QEAAX_N@Z
        118   75 0000DE20 ?EnableFrameSync@spoutFrameCount@@QEAAX_N@Z
        119   76 0001D880 ?EnableLogs@spoututils@@YAXXZ
        120   77 0001D890 ?EnableSpoutLog@spoututils@@YAXPEBD@Z
        121   78 0001D990 ?EnableSpoutLogFile@spoututils@@YAXPEBD_N@Z
        122   79 0000DE30 ?EndTimePeriod@spoutFrameCount@@IEAAXXZ
        123   7A 0001DAC0 ?EndTiming@spoututils@@YAN_N0@Z
        124   7B 00017830 ?FindActiveSender@spoutSenderNames@@QEAA_NPEADAEAI1AEAPEAXAEAKH@Z
        125   7C 00003150 ?FindNVIDIA@Spout@@QEAA_NAEAH@Z
        126   7D 0000B6F0 ?FindNVIDIA@spoutDirectX@@QEAA_NAEAH@Z
        127   7E 00017990 ?FindSender@spoutSenderNames@@QEAA_NPEADAEAI1AEAPEAXAEAK@Z
        128   7F 00017AA0 ?FindSender@spoutSenderNames@@QEAA_NPEBD@Z
        129   80 00017C50 ?FindSenderName@spoutSenderNames@@QEAA_NPEBD@Z
        130   81 0001DB80 ?FindSubKey@spoututils@@YA_NPEAUHKEY__@@PEBD@Z
        131   82 00006EA0 ?FlipBuffer@spoutCopy@@QEBAXPEAEIII@Z
        132   83 00006FA0 ?FlipBuffer@spoutCopy@@QEBAXPEBEPEAEIII@Z
        133   84 0000B8A0 ?Flush@spoutDirectX@@QEAAXXZ
        134   85 0000B8C0 ?FlushWait@spoutDirectX@@QEAAXPEAUID3D11Device@@PEAUID3D11DeviceContext@@@Z
        135   86 00016020 ?GLDXformat@SpoutReceiver@@QEAAHW4DXGI_FORMAT@@@Z
        136   87 00016020 ?GLDXformat@SpoutSender@@QEAAHW4DXGI_FORMAT@@@Z
        137   88 00010760 ?GLDXformat@spoutGL@@QEAAHW4DXGI_FORMAT@@@Z
        138   89 00010840 ?GLDXready@spoutGL@@QEAA_NXZ
        139   8A 00010B00 ?GLerror@spoutGL@@QEAA_NXZ
        140   8B 00016030 ?GLformat@SpoutReceiver@@QEAAHII@Z
        141   8C 00016030 ?GLformat@SpoutSender@@QEAAHII@Z
        142   8D 00010B50 ?GLformat@spoutGL@@QEAAHII@Z
        143   8E 00016040 ?GLformatName@SpoutReceiver@@QEAA?AV?$basic_string@DU?$char_traits@D@std@@V?$allocator@D@2@@std@@H@Z
        144   8F 00016040 ?GLformatName@SpoutSender@@QEAA?AV?$basic_string@DU?$char_traits@D@std@@V?$allocator@D@2@@std@@H@Z
        145   90 00010BA0 ?GLformatName@spoutGL@@QEAA?AV?$basic_string@DU?$char_traits@D@std@@V?$allocator@D@2@@std@@H@Z
        146   91 00003160 ?GetActiveSender@Spout@@QEAA_NPEAD@Z
        147   92 00016060 ?GetActiveSender@SpoutReceiver@@QEAA_NPEAD@Z
        148   93 00016060 ?GetActiveSender@SpoutSender@@QEAA_NPEAD@Z
        149   94 00017F10 ?GetActiveSender@spoutSenderNames@@QEAA_NPEADH@Z
        150   95 00018020 ?GetActiveSenderInfo@spoutSenderNames@@QEAA_NPEAUSharedTextureInfo@@@Z
        151   96 00003180 ?GetAdapter@Spout@@QEAAHXZ
        152   97 00016070 ?GetAdapter@SpoutReceiver@@QEAAHXZ
        153   98 00016070 ?GetAdapter@SpoutSender@@QEAAHXZ
        154   99 0000B920 ?GetAdapter@spoutDirectX@@QEAAHXZ
        155   9A 0000B930 ?GetAdapterIndex@spoutDirectX@@QEAAHPEBD@Z
        156   9B 00003190 ?GetAdapterInfo@Spout@@QEAA_NHPEAD0H@Z
        157   9C 000031A0 ?GetAdapterInfo@Spout@@QEAA_NPEAD0000H@Z
        158   9D 00003480 ?GetAdapterInfo@Spout@@QEAA_NPEAD0H@Z
        159   9E 00016080 ?GetAdapterInfo@SpoutReceiver@@QEAA_NHPEAD0H@Z
        160   9F 00016090 ?GetAdapterInfo@SpoutReceiver@@QEAA_NPEAD0H@Z
        161   A0 00016080 ?GetAdapterInfo@SpoutSender@@QEAA_NHPEAD0H@Z
        162   A1 00016090 ?GetAdapterInfo@SpoutSender@@QEAA_NPEAD0H@Z
        163   A2 0000BAC0 ?GetAdapterInfo@spoutDirectX@@QEAA_NHPEAD0H@Z
        164   A3 0000BC40 ?GetAdapterInfo@spoutDirectX@@QEAA_NPEAD0H@Z
        165   A4 00003490 ?GetAdapterName@Spout@@QEAA_NHPEADH@Z
        166   A5 000160A0 ?GetAdapterName@SpoutReceiver@@QEAA_NHPEADH@Z
        167   A6 000160A0 ?GetAdapterName@SpoutSender@@QEAA_NHPEADH@Z
        168   A7 0000BC60 ?GetAdapterName@spoutDirectX@@QEAA_NHPEADH@Z
        169   A8 0000BDA0 ?GetAdapterPointer@spoutDirectX@@QEAAPEAUIDXGIAdapter@@H@Z
        170   A9 000160B0 ?GetAutoShare@SpoutReceiver@@QEAA_NXZ
        171   AA 000160B0 ?GetAutoShare@SpoutSender@@QEAA_NXZ
        172   AB 00010CD0 ?GetAutoShare@spoutGL@@QEAA_NXZ
        173   AC 000160C0 ?GetBufferMode@SpoutReceiver@@QEAA_NXZ
        174   AD 000160C0 ?GetBufferMode@SpoutSender@@QEAA_NXZ
        175   AE 00010CE0 ?GetBufferMode@spoutGL@@QEAA_NXZ
        176   AF 000160D0 ?GetBuffers@SpoutReceiver@@QEAAHXZ
        177   B0 000160D0 ?GetBuffers@SpoutSender@@QEAAHXZ
        178   B1 00010CF0 ?GetBuffers@spoutGL@@QEAAHXZ
        179   B2 00003520 ?GetCPU@Spout@@QEAA_NXZ
        180   B3 000161B0 ?GetCPU@SpoutSender@@QEAA_NXZ
        181   B4 000160E0 ?GetCPUmode@SpoutReceiver@@QEAA_NXZ
        182   B5 000160E0 ?GetCPUmode@SpoutSender@@QEAA_NXZ
        183   B6 00010D00 ?GetCPUmode@spoutGL@@QEAA_NXZ
        184   B7 000160F0 ?GetCPUshare@SpoutReceiver@@QEAA_NXZ
        185   B8 000160F0 ?GetCPUshare@SpoutSender@@QEAA_NXZ
        186   B9 00010D40 ?GetCPUshare@spoutGL@@QEAA_NXZ
        187   BA 0001DBE0 ?GetCounter@spoututils@@YANXZ
        188   BB 0001DC20 ?GetCurrentModule@spoututils@@YAPEAUHINSTANCE__@@XZ
        189   BC 0000BE90 ?GetDX11Context@spoutDirectX@@QEAAPEAUID3D11DeviceContext@@XZ
        190   BD 00010D50 ?GetDX11Context@spoutGL@@QEAAPEAUID3D11DeviceContext@@XZ
        191   BE 0000BEA0 ?GetDX11Device@spoutDirectX@@QEAAPEAUID3D11Device@@XZ
        192   BF 00010D60 ?GetDX11Device@spoutGL@@QEAAPEAUID3D11Device@@XZ
        193   C0 0000BEB0 ?GetDX11FeatureLevel@spoutDirectX@@QEAA?AW4D3D_FEATURE_LEVEL@@XZ
        194   C1 00016100 ?GetDX11format@SpoutReceiver@@QEAA?AW4DXGI_FORMAT@@XZ
        195   C2 00016100 ?GetDX11format@SpoutSender@@QEAA?AW4DXGI_FORMAT@@XZ
        196   C3 00010D70 ?GetDX11format@spoutGL@@QEAA?AW4DXGI_FORMAT@@XZ
        197   C4 00016110 ?GetDX9@SpoutReceiver@@QEAA_NXZ
        198   C5 00016110 ?GetDX9@SpoutSender@@QEAA_NXZ
        199   C6 00010D80 ?GetDX9@spoutGL@@QEAA_NXZ
        200   C7 00003C50 ?GetDXsharedTexture@spoutGL@@QEAAPEAUID3D11Texture2D@@XZ
        201   C8 0001DC50 ?GetExeName@spoututils@@YA?AV?$basic_string@DU?$char_traits@D@std@@V?$allocator@D@2@@std@@XZ
        202   C9 0001E040 ?GetExePath@spoututils@@YA?AV?$basic_string@DU?$char_traits@D@std@@V?$allocator@D@2@@std@@_N@Z
        203   CA 0001E2C0 ?GetExeVersion@spoututils@@YA?AV?$basic_string@DU?$char_traits@D@std@@V?$allocator@D@2@@std@@PEBD@Z
        204   CB 00003530 ?GetFps@Spout@@QEAANXZ
        205   CC 000161E0 ?GetFps@SpoutSender@@QEAANXZ
        206   CD 00003540 ?GetFrame@Spout@@QEAAJXZ
        207   CE 000161F0 ?GetFrame@SpoutSender@@QEAAJXZ
        208   CF 00003550 ?GetGLDX@Spout@@QEAA_NXZ
        209   D0 00016200 ?GetGLDX@SpoutSender@@QEAA_NXZ
        210   D1 00010DC0 ?GetGLversion@spoutGL@@QEAAMXZ
        211   D2 00003560 ?GetHandle@Spout@@QEAAPEAXXZ
        212   D3 00016210 ?GetHandle@SpoutSender@@QEAAPEAXXZ
        213   D4 00003570 ?GetHeight@Spout@@QEAAIXZ
        214   D5 00016220 ?GetHeight@SpoutSender@@QEAAIXZ
        215   D6 00016120 ?GetHostPath@SpoutReceiver@@QEAA_NPEBDPEADH@Z
        216   D7 00016120 ?GetHostPath@SpoutSender@@QEAA_NPEBDPEADH@Z
        217   D8 00010E20 ?GetHostPath@spoutGL@@QEAA_NPEBDPEADH@Z
        218   D9 00010EB0 ?GetInteropDevice@spoutGL@@QEAAPEAXXZ
        219   DA 00010EC0 ?GetInteropObject@spoutGL@@QEAAPEAXXZ
        220   DB 00016130 ?GetMaxSenders@SpoutReceiver@@QEAAHXZ
        221   DC 00016130 ?GetMaxSenders@SpoutSender@@QEAAHXZ
        222   DD 00010ED0 ?GetMaxSenders@spoutGL@@QEAAHXZ
        223   DE 000180B0 ?GetMaxSenders@spoutSenderNames@@QEAAHXZ
        224   DF 00016140 ?GetMemoryBufferSize@SpoutReceiver@@QEAAHPEBD@Z
        225   E0 00016140 ?GetMemoryBufferSize@SpoutSender@@QEAAHPEBD@Z
        226   E1 00010EE0 ?GetMemoryBufferSize@spoutGL@@QEAAHPEBD@Z
        227   E2 00016150 ?GetMemoryShareMode@SpoutReceiver@@QEAA_NXZ
        228   E3 00016150 ?GetMemoryShareMode@SpoutSender@@QEAA_NXZ
        229   E4 00011090 ?GetMemoryShareMode@spoutGL@@QEAA_NXZ
        230   E5 00003580 ?GetName@Spout@@QEAAPEBDXZ
        231   E6 00016260 ?GetName@SpoutSender@@QEAAPEBDXZ
        232   E7 0001E400 ?GetName@spoututils@@YA?AV?$basic_string@DU?$char_traits@D@std@@V?$allocator@D@2@@std@@V23@@Z
        233   E8 0000DE60 ?GetNewFrame@spoutFrameCount@@QEAA_NXZ
        234   E9 00003590 ?GetNumAdapters@Spout@@QEAAHXZ
        235   EA 00016160 ?GetNumAdapters@SpoutReceiver@@QEAAHXZ
        236   EB 00016160 ?GetNumAdapters@SpoutSender@@QEAAHXZ
        237   EC 0000BEC0 ?GetNumAdapters@spoutDirectX@@QEAAHXZ
        238   ED 0001E6E0 ?GetPath@spoututils@@YA?AV?$basic_string@DU?$char_traits@D@std@@V?$allocator@D@2@@std@@V23@@Z
        239   EE 000035A0 ?GetPerformancePreference@Spout@@QEAAHPEBD@Z
        240   EF 00016170 ?GetPerformancePreference@SpoutReceiver@@QEAAHPEBD@Z
        241   F0 00016170 ?GetPerformancePreference@SpoutSender@@QEAAHPEBD@Z
        242   F1 0000BFD0 ?GetPerformancePreference@spoutDirectX@@QEAAHPEBD@Z
        243   F2 000035B0 ?GetPreferredAdapterName@Spout@@QEAA_NHPEADH@Z
        244   F3 00016180 ?GetPreferredAdapterName@SpoutReceiver@@QEAA_NHPEADH@Z
        245   F4 00016180 ?GetPreferredAdapterName@SpoutSender@@QEAA_NHPEADH@Z
        246   F5 0000C3A0 ?GetPreferredAdapterName@spoutDirectX@@QEAA_NHPEADH@Z
        247   F6 000035C0 ?GetReceiverName@Spout@@QEAA_NPEADH@Z
        248   F7 00016190 ?GetReceiverName@SpoutReceiver@@QEAA_NPEADH@Z
        249   F8 0001E9A0 ?GetRefreshRate@spoututils@@YANXZ
        250   F9 0001EA60 ?GetSDKversion@spoututils@@YA?AV?$basic_string@DU?$char_traits@D@std@@V?$allocator@D@2@@std@@PEAH@Z
        251   FA 000070E0 ?GetSSE2@spoutCopy@@QEAA_NXZ
        252   FB 000070F0 ?GetSSE3@spoutCopy@@QEAA_NXZ
        253   FC 00007100 ?GetSSE@spoutCopy@@QEAAXAEA_N00@Z
        254   FD 00007120 ?GetSSSE3@spoutCopy@@QEAA_NXZ
        255   FE 00003600 ?GetSender@Spout@@QEAA_NHPEADH@Z
        256   FF 000161A0 ?GetSender@SpoutReceiver@@QEAA_NHPEADH@Z
        257  100 000161A0 ?GetSender@SpoutSender@@QEAA_NHPEADH@Z
        258  101 000180C0 ?GetSender@spoutSenderNames@@QEAA_NHPEADH@Z
        259  102 00003620 ?GetSenderAdapter@Spout@@QEAAHPEBDPEADH@Z
        260  103 00003520 ?GetSenderCPU@Spout@@QEAA_NXZ
        261  104 000161B0 ?GetSenderCPU@SpoutReceiver@@QEAA_NXZ
        262  105 00003830 ?GetSenderCount@Spout@@QEAAHXZ
        263  106 000161C0 ?GetSenderCount@SpoutReceiver@@QEAAHXZ
        264  107 000161C0 ?GetSenderCount@SpoutSender@@QEAAHXZ
        265  108 00018430 ?GetSenderCount@spoutSenderNames@@QEAAHXZ
        266  109 00003840 ?GetSenderFormat@Spout@@QEAAKXZ
        267  10A 000161D0 ?GetSenderFormat@SpoutReceiver@@QEAAKXZ
        268  10B 00003530 ?GetSenderFps@Spout@@QEAANXZ
        269  10C 000161E0 ?GetSenderFps@SpoutReceiver@@QEAANXZ
        270  10D 0000DF40 ?GetSenderFps@spoutFrameCount@@QEAANXZ
        271  10E 00003540 ?GetSenderFrame@Spout@@QEAAJXZ
        272  10F 000161F0 ?GetSenderFrame@SpoutReceiver@@QEAAJXZ
        273  110 0000DF50 ?GetSenderFrame@spoutFrameCount@@QEAAJXZ
        274  111 00003550 ?GetSenderGLDX@Spout@@QEAA_NXZ
        275  112 00016200 ?GetSenderGLDX@SpoutReceiver@@QEAA_NXZ
        276  113 00003560 ?GetSenderHandle@Spout@@QEAAPEAXXZ
        277  114 00016210 ?GetSenderHandle@SpoutReceiver@@QEAAPEAXXZ
        278  115 00003570 ?GetSenderHeight@Spout@@QEAAIXZ
        279  116 00016220 ?GetSenderHeight@SpoutReceiver@@QEAAIXZ
        280  117 00003850 ?GetSenderIndex@Spout@@QEAAHPEBD@Z
        281  118 00018730 ?GetSenderIndex@spoutSenderNames@@QEAAHPEBD@Z
        282  119 00003860 ?GetSenderInfo@Spout@@QEAA_NPEBDAEAI1AEAPEAXAEAK@Z
        283  11A 00016230 ?GetSenderInfo@SpoutReceiver@@QEAA_NPEBDAEAI1AEAPEAXAEAK@Z
        284  11B 00016230 ?GetSenderInfo@SpoutSender@@QEAA_NPEBDAEAI1AEAPEAXAEAK@Z
        285  11C 000188A0 ?GetSenderInfo@spoutSenderNames@@QEAA_NPEBDAEAI1AEAPEAXAEAK@Z
        286  11D 00003880 ?GetSenderList@Spout@@QEAA?AV?$vector@V?$basic_string@DU?$char_traits@D@std@@V?$allocator@D@2@@std@@V?$allocator@V?$basic_string@DU?$char_traits@D@std@@V?$allocator@D@2@@std@@@2@@std@@XZ
        287  11E 00016240 ?GetSenderList@SpoutReceiver@@QEAA?AV?$vector@V?$basic_string@DU?$char_traits@D@std@@V?$allocator@D@2@@std@@V?$allocator@V?$basic_string@DU?$char_traits@D@std@@V?$allocator@D@2@@std@@@2@@std@@XZ
        288  11F 00003580 ?GetSenderName@Spout@@QEAAPEBDXZ
        289  120 00016260 ?GetSenderName@SpoutReceiver@@QEAAPEBDXZ
        290  121 0000DF60 ?GetSenderName@spoutFrameCount@@QEAA?AV?$basic_string@DU?$char_traits@D@std@@V?$allocator@D@2@@std@@XZ
        291  122 000189A0 ?GetSenderNameInfo@spoutSenderNames@@QEAA_NHPEADHAEAI1AEAPEAX@Z
        292  123 00018D50 ?GetSenderNames@spoutSenderNames@@QEAA_NPEAV?$set@V?$basic_string@DU?$char_traits@D@std@@V?$allocator@D@2@@std@@U?$less@V?$basic_string@DU?$char_traits@D@std@@V?$allocator@D@2@@std@@@2@V?$allocator@V?$basic_string@DU?$char_traits@D@std@@V?$allocator@D@2@@std@@@2@@std@@@Z
        293  124 00018D70 ?GetSenderSet@spoutSenderNames@@IEAA_NAEAV?$set@V?$basic_string@DU?$char_traits@D@std@@V?$allocator@D@2@@std@@U?$less@V?$basic_string@DU?$char_traits@D@std@@V?$allocator@D@2@@std@@@2@V?$allocator@V?$basic_string@DU?$char_traits@D@std@@V?$allocator@D@2@@std@@@2@@std@@@Z
        294  125 00003C50 ?GetSenderTexture@Spout@@QEAAPEAUID3D11Texture2D@@XZ
        295  126 00003C60 ?GetSenderWidth@Spout@@QEAAIXZ
        296  127 00016270 ?GetSenderWidth@SpoutReceiver@@QEAAIXZ
        297  128 00016280 ?GetShareMode@SpoutReceiver@@QEAAHXZ
        298  129 00016280 ?GetShareMode@SpoutSender@@QEAAHXZ
        299  12A 000110D0 ?GetShareMode@spoutGL@@QEAAHXZ
        300  12B 00016290 ?GetSharedTextureID@SpoutReceiver@@QEAAIXZ
        301  12C 00016290 ?GetSharedTextureID@SpoutSender@@QEAAIXZ
        302  12D 00011140 ?GetSharedTextureID@spoutGL@@QEAAIXZ
        303  12E 0001ED50 ?GetSpoutLog@spoututils@@YA?AV?$basic_string@DU?$char_traits@D@std@@V?$allocator@D@2@@std@@PEBD@Z
        304  12F 0001F220 ?GetSpoutLogPath@spoututils@@YA?AV?$basic_string@DU?$char_traits@D@std@@V?$allocator@D@2@@std@@XZ
        305  130 000162A0 ?GetSpoutVersion@SpoutReceiver@@QEAAHXZ
        306  131 000162A0 ?GetSpoutVersion@SpoutSender@@QEAAHXZ
        307  132 00011150 ?GetSpoutVersion@spoutGL@@QEAAHXZ
        308  133 0001F240 ?GetSpoutVersion@spoututils@@YA?AV?$basic_string@DU?$char_traits@D@std@@V?$allocator@D@2@@std@@PEAH@Z
        309  134 000162B0 ?GetVerticalSync@SpoutReceiver@@QEAAHXZ
        310  135 000162B0 ?GetVerticalSync@SpoutSender@@QEAAHXZ
        311  136 00011160 ?GetVerticalSync@spoutGL@@QEAAHXZ
        312  137 00003C60 ?GetWidth@Spout@@QEAAIXZ
        313  138 00016270 ?GetWidth@SpoutSender@@QEAAIXZ
        314  139 00003C70 ?HoldFps@Spout@@QEAAXH@Z
        315  13A 000162C0 ?HoldFps@SpoutReceiver@@QEAAXH@Z
        316  13B 000162C0 ?HoldFps@SpoutSender@@QEAAXH@Z
        317  13C 0000DFB0 ?HoldFps@spoutFrameCount@@QEAAXH@Z
        318  13D 00003C80 ?InitReceiver@Spout@@IEAAXPEBDIIK@Z
        319  13E 000111A0 ?InitTexture@spoutGL@@QEAAXAEAIIII@Z
        320  13F 00003D30 ?IsApplicationPath@Spout@@QEAA_NPEBD@Z
        321  140 000162D0 ?IsApplicationPath@SpoutReceiver@@QEAA_NPEBD@Z
        322  141 000162D0 ?IsApplicationPath@SpoutSender@@QEAA_NPEBD@Z
        323  142 0000C570 ?IsApplicationPath@spoutDirectX@@QEAA_NPEBD@Z
        324  143 000112F0 ?IsBGRAavailable@spoutGL@@QEAA_NXZ
        325  144 00011300 ?IsBLITavailable@spoutGL@@QEAA_NXZ
        326  145 00011310 ?IsCONTEXTavailable@spoutGL@@QEAA_NXZ
        327  146 00011320 ?IsCOPYavailable@spoutGL@@QEAA_NXZ
        328  147 00003D50 ?IsConnected@Spout@@QEAA_NXZ
        329  148 000162E0 ?IsConnected@SpoutReceiver@@QEAA_NXZ
        330  149 00003D60 ?IsFrameCountEnabled@Spout@@QEAA_NXZ
        331  14A 000162F0 ?IsFrameCountEnabled@SpoutReceiver@@QEAA_NXZ
        332  14B 000162F0 ?IsFrameCountEnabled@SpoutSender@@QEAA_NXZ
        333  14C 0000E210 ?IsFrameCountEnabled@spoutFrameCount@@QEAA_NXZ
        334  14D 00003D70 ?IsFrameNew@Spout@@QEAA_NXZ
        335  14E 00016300 ?IsFrameNew@SpoutReceiver@@QEAA_NXZ
        336  14F 0000E230 ?IsFrameNew@spoutFrameCount@@QEAA_NXZ
        337  150 00003D80 ?IsFrameSyncEnabled@Spout@@QEAA_NXZ
        338  151 00016310 ?IsFrameSyncEnabled@SpoutReceiver@@QEAA_NXZ
        339  152 00016310 ?IsFrameSyncEnabled@SpoutSender@@QEAA_NXZ
        340  153 0000E240 ?IsFrameSyncEnabled@spoutFrameCount@@QEAA_NXZ
        341  154 00011330 ?IsGLDXavailable@spoutGL@@QEAA_NXZ
        342  155 00016320 ?IsGLDXready@SpoutReceiver@@QEAA_NXZ
        343  156 00016320 ?IsGLDXready@SpoutSender@@QEAA_NXZ
        344  157 00011340 ?IsGLDXready@spoutGL@@QEAA_NXZ
        345  158 00003D90 ?IsInitialized@Spout@@QEAA_NXZ
        346  159 00016540 ?IsInitialized@SpoutSender@@QEAA_NXZ
        347  15A 0000E250 ?IsKeyedMutex@spoutFrameCount@@QEAA_NPEAUID3D11Texture2D@@@Z
        348  15B 0001F890 ?IsLaptop@spoututils@@YA_NXZ
        349  15C 00010CE0 ?IsPBOavailable@spoutGL@@QEAA_NXZ
        350  15D 00003DA0 ?IsPreferenceAvailable@Spout@@QEAA_NXZ
        351  15E 00016330 ?IsPreferenceAvailable@SpoutReceiver@@QEAA_NXZ
        352  15F 00016330 ?IsPreferenceAvailable@SpoutSender@@QEAA_NXZ
        353  160 0000C980 ?IsPreferenceAvailable@spoutDirectX@@QEAA_NXZ
        354  161 00011350 ?IsSWAPavailable@spoutGL@@QEAA_NXZ
        355  162 00003D90 ?IsSpoutInitialized@spoutGL@@QEAA_NXZ
        356  163 00003DB0 ?IsUpdated@Spout@@QEAA_NXZ
        357  164 00016340 ?IsUpdated@SpoutReceiver@@QEAA_NXZ
        358  165 00011360 ?LinkGLDXtextures@spoutGL@@QEAAPEAXPEAX0I@Z
        359  166 000115D0 ?LoadGLextensions@spoutGL@@QEAA_NXZ
        360  167 00011790 ?LoadTexturePixels@spoutGL@@QEAA_NIIIIPEBEH_N@Z
        361  168 0001C060 ?Lock@SpoutSharedMemory@@QEAAPEADXZ
        362  169 000119D0 ?LockInteropObject@spoutGL@@IEAAJPEAXPEAPEAX@Z
        363  16A 0001F8F0 ?LogFileEnabled@spoututils@@YA_NXZ
        364  16B 0001F900 ?LogsEnabled@spoututils@@YA_NXZ
        365  16C 0001C0C0 ?Name@SpoutSharedMemory@@QEAAPEBDXZ
        366  16D 0001C0D0 ?Open@SpoutSharedMemory@@QEAA_NPEBD@Z
        367  16E 0000CA40 ?OpenDX11shareHandle@spoutDirectX@@QEAA_NPEAUID3D11Device@@PEAPEAUID3D11Texture2D@@PEAX@Z
        368  16F 00011AA0 ?OpenDeviceKey@spoutGL@@IEAA_NPEBDHPEAD1@Z
        369  170 0000CAC0 ?OpenDirectX11@spoutDirectX@@QEAA_NPEAUID3D11Device@@@Z
        370  171 00011DB0 ?OpenDirectX11@spoutGL@@QEAA_NPEAUID3D11Device@@@Z
        371  172 00011DC0 ?OpenDirectX@spoutGL@@QEAA_NXZ
        372  173 0000E2C0 ?OpenFrameSync@spoutFrameCount@@IEAAXPEBD@Z
        373  174 00011DF0 ?OpenSpout@spoutGL@@QEAA_N_N@Z
        374  175 00020300 ?OpenSpoutConsole@spoututils@@YAXPEBD@Z
        375  176 00020480 ?OpenSpoutLogs@spoututils@@YA_NXZ
        376  177 0000E3F0 ?PauseFrameCount@spoutFrameCount@@QEAAX_N@Z
        377  178 00011FD0 ?PrintFBOstatus@spoutGL@@IEAAXI@Z
        378  179 000121D0 ?ReadDX11pixels@spoutGL@@IEAA_NPEAEIII_N@Z
        379  17A 00012310 ?ReadDX11texture@spoutGL@@QEAA_NIIII_NI@Z
        380  17B 00020800 ?ReadDwordFromRegistry@spoututils@@YA_NPEAUHKEY__@@PEBD1PEAK@Z
        381  17C 00012540 ?ReadGLDXpixels@spoutGL@@IEAA_NPEAEIII_NI@Z
        382  17D 000127A0 ?ReadGLDXtexture@spoutGL@@IEAA_NIIII_NI@Z
        383  17E 00016350 ?ReadMemoryBuffer@SpoutReceiver@@QEAAHPEBDPEADH@Z
        384  17F 00012910 ?ReadMemoryBuffer@spoutGL@@QEAAHPEBDPEADH@Z
        385  180 00012AD0 ?ReadMemoryPixels@spoutGL@@IEAA_NPEBDPEAEIII_N@Z
        386  181 00012CD0 ?ReadMemoryTexture@spoutGL@@IEAA_NPEBDIIII_NI@Z
        387  182 00020880 ?ReadPathFromRegistry@spoututils@@YA_NPEAUHKEY__@@PEBD1PEADK@Z
        388  183 00012FA0 ?ReadPixelData@spoutGL@@IEAA_NPEAUID3D11Texture2D@@PEAEIII_N@Z
        389  184 000131B0 ?ReadTexture@spoutGL@@QEAA_NPEAPEAUID3D11Texture2D@@@Z
        390  185 00016360 ?ReadTextureData@SpoutReceiver@@QEAA_NIIPEAXIIIII_NI@Z
        391  186 00016360 ?ReadTextureData@SpoutSender@@QEAA_NIIPEAXIIIII_NI@Z
        392  187 000132C0 ?ReadTextureData@spoutGL@@QEAA_NIIPEAXIIIII_NI@Z
        393  188 00003DC0 ?ReceiveImage@Spout@@QEAA_NPEADAEAI1PEAEI_NI@Z
        394  189 00003E50 ?ReceiveImage@Spout@@QEAA_NPEAEI_NI@Z
        395  18A 00016370 ?ReceiveImage@SpoutReceiver@@QEAA_NPEADAEAI1PEAEI_NI@Z
        396  18B 00016380 ?ReceiveImage@SpoutReceiver@@QEAA_NPEAEI_NI@Z
        397  18C 00004010 ?ReceiveSenderData@Spout@@IEAA_NXZ
        398  18D 000042A0 ?ReceiveTexture@Spout@@QEAA_NII_NI@Z
        399  18E 00004450 ?ReceiveTexture@Spout@@QEAA_NPEADAEAI1II_NI@Z
        400  18F 00004500 ?ReceiveTexture@Spout@@QEAA_NXZ
        401  190 00016390 ?ReceiveTexture@SpoutReceiver@@QEAA_NII_NI@Z
        402  191 000163A0 ?ReceiveTexture@SpoutReceiver@@QEAA_NPEADAEAI1II_NI@Z
        403  192 00004500 ?ReceiveTexture@SpoutReceiver@@QEAA_NXZ
        404  193 00018E00 ?RegisterSenderName@spoutSenderNames@@QEAA_NPEAD_N@Z
        405  194 0000CBD0 ?ReleaseDX11Device@spoutDirectX@@QEAAKPEAUID3D11Device@@@Z
        406  195 0000CCE0 ?ReleaseDX11Texture@spoutDirectX@@QEAAKPEAUID3D11Device@@PEAUID3D11Texture2D@@@Z
        407  196 0000CD90 ?ReleaseDX11Texture@spoutDirectX@@QEAAKPEAUID3D11Texture2D@@@Z
        408  197 00004520 ?ReleaseReceiver@Spout@@QEAAXXZ
        409  198 000163B0 ?ReleaseReceiver@SpoutReceiver@@QEAAXXZ
        410  199 000045E0 ?ReleaseSender@Spout@@QEAAXXZ
        411  19A 00016550 ?ReleaseSender@SpoutSender@@QEAAXXZ
        412  19B 00019460 ?ReleaseSenderName@spoutSenderNames@@QEAA_NPEBD@Z
        413  19C 00007130 ?RemovePadding@spoutCopy@@QEBAXPEBEPEAEIIII@Z
        414  19D 000137C0 ?RemovePadding@spoutGL@@QEAAXPEBEPEAEIIII@Z
        415  19E 00020980 ?RemovePathFromRegistry@spoututils@@YA_NPEAUHKEY__@@PEBD1@Z
        416  19F 00020A30 ?RemoveSpoutLogFile@spoututils@@YAXPEBD@Z
        417  1A0 00020B40 ?RemoveSubKey@spoututils@@YA_NPEAUHKEY__@@PEBD@Z
        418  1A1 00007230 ?SaveTextureToBMP@spoutCopy@@QEAA_NPEAUID3D11DeviceContext@@PEAUID3D11Texture2D@@V?$basic_string@DU?$char_traits@D@std@@V?$allocator@D@2@@std@@@Z
        419  1A2 00004680 ?SelectSender@Spout@@QEAA_NPEAUHWND__@@@Z
        420  1A3 000163C0 ?SelectSender@SpoutReceiver@@QEAA_NPEAUHWND__@@@Z
        421  1A4 000056E0 ?SelectSenderPanel@Spout@@QEAA_NPEBD@Z
        422  1A5 000163D0 ?SelectSenderPanel@SpoutReceiver@@QEAA_NPEBD@Z
        423  1A6 00005B50 ?SendFbo@Spout@@QEAA_NIII_N@Z
        424  1A7 00016560 ?SendFbo@SpoutSender@@QEAA_NIII_N@Z
        425  1A8 00005CC0 ?SendImage@Spout@@QEAA_NPEBEIII_NI@Z
        426  1A9 00016570 ?SendImage@SpoutSender@@QEAA_NPEBEIII_NI@Z
        427  1AA 00005DF0 ?SendTexture@Spout@@QEAA_NIIII_NI@Z
        428  1AB 00016580 ?SendTexture@SpoutSender@@QEAA_NIIII_NI@Z
        429  1AC 00005EC0 ?SetActiveSender@Spout@@QEAA_NPEBD@Z
        430  1AD 000163E0 ?SetActiveSender@SpoutReceiver@@QEAA_NPEBD@Z
        431  1AE 000163E0 ?SetActiveSender@SpoutSender@@QEAA_NPEBD@Z
        432  1AF 00019BE0 ?SetActiveSender@spoutSenderNames@@QEAA_NPEBD@Z
        433  1B0 0000CE40 ?SetAdapter@spoutDirectX@@QEAA_NH@Z
        434  1B1 0000CFD0 ?SetAdapterPointer@spoutDirectX@@QEAAXPEAUIDXGIAdapter@@@Z
        435  1B2 000163F0 ?SetAutoShare@SpoutReceiver@@QEAAX_N@Z
        436  1B3 000163F0 ?SetAutoShare@SpoutSender@@QEAAX_N@Z
        437  1B4 000137D0 ?SetAutoShare@spoutGL@@QEAAX_N@Z
        438  1B5 00016400 ?SetBufferMode@SpoutReceiver@@QEAAX_N@Z
        439  1B6 00016400 ?SetBufferMode@SpoutSender@@QEAAX_N@Z
        440  1B7 000137E0 ?SetBufferMode@spoutGL@@QEAAX_N@Z
        441  1B8 00016410 ?SetBuffers@SpoutReceiver@@QEAAXH@Z
        442  1B9 00016410 ?SetBuffers@SpoutSender@@QEAAXH@Z
        443  1BA 00013810 ?SetBuffers@spoutGL@@QEAAXH@Z
        444  1BB 00016420 ?SetCPUmode@SpoutReceiver@@QEAA_N_N@Z
        445  1BC 00016420 ?SetCPUmode@SpoutSender@@QEAA_N_N@Z
        446  1BD 00013820 ?SetCPUmode@spoutGL@@QEAA_N_N@Z
        447  1BE 00016430 ?SetCPUshare@SpoutReceiver@@QEAAX_N@Z
        448  1BF 00016430 ?SetCPUshare@SpoutSender@@QEAAX_N@Z
        449  1C0 00013840 ?SetCPUshare@spoutGL@@QEAAX_N@Z
        450  1C1 0000CFE0 ?SetDX11Device@spoutDirectX@@QEAA_NPEAUID3D11Device@@@Z
        451  1C2 00016440 ?SetDX11format@SpoutReceiver@@QEAAXW4DXGI_FORMAT@@@Z
        452  1C3 00016440 ?SetDX11format@SpoutSender@@QEAAXW4DXGI_FORMAT@@@Z
        453  1C4 000138A0 ?SetDX11format@spoutGL@@QEAAXW4DXGI_FORMAT@@@Z
        454  1C5 00016450 ?SetDX9@SpoutReceiver@@QEAA_N_N@Z
        455  1C6 00016450 ?SetDX9@SpoutSender@@QEAA_N_N@Z
        456  1C7 000138B0 ?SetDX9@spoutGL@@QEAA_N_N@Z
        457  1C8 00005EE0 ?SetFrameCount@Spout@@QEAAX_N@Z
        458  1C9 00016460 ?SetFrameCount@SpoutReceiver@@QEAAX_N@Z
        459  1CA 00016460 ?SetFrameCount@SpoutSender@@QEAAX_N@Z
        460  1CB 0000E400 ?SetFrameCount@spoutFrameCount@@QEAAX_N@Z
        461  1CC 00005EF0 ?SetFrameSync@Spout@@QEAAXPEBD@Z
        462  1CD 00016470 ?SetFrameSync@SpoutReceiver@@QEAAXPEBD@Z
        463  1CE 00016470 ?SetFrameSync@SpoutSender@@QEAAXPEBD@Z
        464  1CF 0000E480 ?SetFrameSync@spoutFrameCount@@QEAAXPEBD@Z
        465  1D0 000138D0 ?SetHostPath@spoutGL@@QEAA_NPEBD@Z
        466  1D1 00016480 ?SetMaxSenders@SpoutReceiver@@QEAAXH@Z
        467  1D2 00016480 ?SetMaxSenders@SpoutSender@@QEAAXH@Z
        468  1D3 000139B0 ?SetMaxSenders@spoutGL@@QEAAXH@Z
        469  1D4 00019EA0 ?SetMaxSenders@spoutSenderNames@@QEAAXH@Z
        470  1D5 00016490 ?SetMemoryShareMode@SpoutReceiver@@QEAA_N_N@Z
        471  1D6 00016490 ?SetMemoryShareMode@SpoutSender@@QEAA_N_N@Z
        472  1D7 000139C0 ?SetMemoryShareMode@spoutGL@@QEAA_N_N@Z
        473  1D8 0000E4E0 ?SetNewFrame@spoutFrameCount@@QEAAXXZ
        474  1D9 00005F20 ?SetPerformancePreference@Spout@@QEAA_NHPEBD@Z
        475  1DA 000164A0 ?SetPerformancePreference@SpoutReceiver@@QEAA_NHPEBD@Z
        476  1DB 000164A0 ?SetPerformancePreference@SpoutSender@@QEAA_NHPEBD@Z
        477  1DC 0000D050 ?SetPerformancePreference@spoutDirectX@@QEAA_NHPEBD@Z
        478  1DD 00005F30 ?SetPreferredAdapter@Spout@@QEAA_NH@Z
        479  1DE 000164B0 ?SetPreferredAdapter@SpoutReceiver@@QEAA_NH@Z
        480  1DF 000164B0 ?SetPreferredAdapter@SpoutSender@@QEAA_NH@Z
        481  1E0 0000D220 ?SetPreferredAdapter@spoutDirectX@@QEAA_NH@Z
        482  1E1 00005F40 ?SetReceiverName@Spout@@QEAAXPEBD@Z
        483  1E2 000164C0 ?SetReceiverName@SpoutReceiver@@QEAAXPEBD@Z
        484  1E3 00005FB0 ?SetSenderFormat@Spout@@QEAAXK@Z
        485  1E4 00016590 ?SetSenderFormat@SpoutSender@@QEAAXK@Z
        486  1E5 000139E0 ?SetSenderID@spoutGL@@QEAA_NPEBD_N1@Z
        487  1E6 00019EF0 ?SetSenderID@spoutSenderNames@@QEAA_NPEBD_N1@Z
        488  1E7 0001A040 ?SetSenderInfo@spoutSenderNames@@QEAA_NPEBDIIPEAXK@Z
        489  1E8 00005FC0 ?SetSenderName@Spout@@QEAAXPEBD@Z
        490  1E9 000165A0 ?SetSenderName@SpoutSender@@QEAAXPEBD@Z
        491  1EA 000164D0 ?SetShareMode@SpoutReceiver@@QEAAXH@Z
        492  1EB 000164D0 ?SetShareMode@SpoutSender@@QEAAXH@Z
        493  1EC 00013A50 ?SetShareMode@spoutGL@@QEAAXH@Z
        494  1ED 00013AC0 ?SetSharedTextureData@spoutGL@@IEAA_NIIII_NI@Z
        495  1EE 00020B80 ?SetSpoutLogLevel@spoututils@@YAXW4SpoutLogLevel@1@@Z
        496  1EF 000164E0 ?SetVerticalSync@SpoutReceiver@@QEAA_N_N@Z
        497  1F0 000165B0 ?SetVerticalSync@SpoutSender@@QEAA_NH@Z
        498  1F1 00013CA0 ?SetVerticalSync@spoutGL@@QEAA_NH@Z
        499  1F2 00020B90 ?ShowSpoutLogs@spoututils@@YAXXZ
        500  1F3 0000BEB0 ?Size@SpoutSharedMemory@@QEAAHXZ
        501  1F4 00020FE0 ?SpoutLog@spoututils@@YAXPEBDZZ
        502  1F5 00021010 ?SpoutLogError@spoututils@@YAXPEBDZZ
        503  1F6 00021040 ?SpoutLogFatal@spoututils@@YAXPEBDZZ
        504  1F7 00021070 ?SpoutLogNotice@spoututils@@YAXPEBDZZ
        505  1F8 000210A0 ?SpoutLogVerbose@spoututils@@YAXPEBDZZ
        506  1F9 000210D0 ?SpoutLogWarning@spoututils@@YAXPEBDZZ
        507  1FA 00021140 ?SpoutMessageBox@spoututils@@YAHPEAUHWND__@@PEBD1I1K@Z
        508  1FB 000212A0 ?SpoutMessageBox@spoututils@@YAHPEAUHWND__@@PEBD1IAEAV?$basic_string@DU?$char_traits@D@std@@V?$allocator@D@2@@std@@@Z
        509  1FC 00021430 ?SpoutMessageBox@spoututils@@YAHPEAUHWND__@@PEBD1IK@Z
        510  1FD 00021440 ?SpoutMessageBox@spoututils@@YAHPEAUHWND__@@PEBD1IV?$vector@V?$basic_string@DU?$char_traits@D@std@@V?$allocator@D@2@@std@@V?$allocator@V?$basic_string@DU?$char_traits@D@std@@V?$allocator@D@2@@std@@@2@@std@@AEAH@Z
        511  1FE 00021600 ?SpoutMessageBox@spoututils@@YAHPEBD0ZZ
        512  1FF 000218C0 ?SpoutMessageBox@spoututils@@YAHPEBDI0ZZ
        513  200 00021B80 ?SpoutMessageBox@spoututils@@YAHPEBDK@Z
        514  201 00021BB0 ?SpoutMessageBoxButton@spoututils@@YAXHV?$basic_string@_WU?$char_traits@_W@std@@V?$allocator@_W@2@@std@@@Z
        515  202 00021C50 ?SpoutMessageBoxIcon@spoututils@@YAXPEAUHICON__@@@Z
        516  203 00021C60 ?SpoutMessageBoxIcon@spoututils@@YA_NV?$basic_string@DU?$char_traits@D@std@@V?$allocator@D@2@@std@@@Z
        517  204 00021CD0 ?SpoutMessageBoxModeless@spoututils@@YA_N_N@Z
        518  205 00022260 ?SpoutMessageBoxPosition@spoututils@@YAXUtagPOINT@@@Z
        519  206 00022270 ?SpoutMessageBoxWindow@spoututils@@YAXPEAUHWND__@@@Z
        520  207 00022280 ?StartCounter@spoututils@@YAXXZ
        521  208 0000E590 ?StartTimePeriod@spoutFrameCount@@IEAAXXZ
        522  209 000222E0 ?StartTiming@spoututils@@YAXXZ
        523  20A 000164F0 ?UnBindSharedTexture@SpoutReceiver@@QEAA_NXZ
        524  20B 000164F0 ?UnBindSharedTexture@SpoutSender@@QEAA_NXZ
        525  20C 00013D00 ?UnBindSharedTexture@spoutGL@@QEAA_NXZ
        526  20D 00013D80 ?UnloadTexturePixels@spoutGL@@QEAA_NIIIIIPEAEI_NI@Z
        527  20E 0001C250 ?Unlock@SpoutSharedMemory@@QEAAXXZ
        528  20F 00014080 ?UnlockInteropObject@spoutGL@@IEAAJPEAXPEAPEAX@Z
        529  210 00006150 ?UpdateSender@Spout@@QEAA_NPEBDII@Z
        530  211 000165C0 ?UpdateSender@SpoutSender@@QEAA_NPEBDII@Z
        531  212 0001A390 ?UpdateSender@spoutSenderNames@@QEAA_NPEBDIIPEAXK@Z
        532  213 0000E5E0 ?UpdateSenderFps@spoutFrameCount@@IEAAXJ@Z
        533  214 0000D300 ?Wait@spoutDirectX@@QEAAXPEAUID3D11Device@@PEAUID3D11DeviceContext@@@Z
        534  215 000061D0 ?WaitFrameSync@Spout@@QEAA_NPEBDK@Z
        535  216 00016500 ?WaitFrameSync@SpoutReceiver@@QEAA_NPEBDK@Z
        536  217 00016500 ?WaitFrameSync@SpoutSender@@QEAA_NPEBDK@Z
        537  218 0000E730 ?WaitFrameSync@spoutFrameCount@@QEAA_NPEBDK@Z
        538  219 0000E8B0 ?WaitNewFrame@spoutFrameCount@@QEAA_NK@Z
        539  21A 00022920 ?WriteBinaryToRegistry@spoututils@@YA_NPEAUHKEY__@@PEBD1PEBEK@Z
        540  21B 00014150 ?WriteDX11pixels@spoutGL@@IEAA_NPEBEIII_N@Z
        541  21C 00014270 ?WriteDX11texture@spoutGL@@QEAA_NIIII_NI@Z
        542  21D 00022A40 ?WriteDwordToRegistry@spoututils@@YA_NPEAUHKEY__@@PEBD1K@Z
        543  21E 00014420 ?WriteGLDXpixels@spoutGL@@IEAA_NPEBEIII_NI@Z
        544  21F 00014580 ?WriteGLDXtexture@spoutGL@@IEAA_NIIII_NI@Z
        545  220 000165D0 ?WriteMemoryBuffer@SpoutSender@@QEAA_NPEBD0H@Z
        546  221 000146C0 ?WriteMemoryBuffer@spoutGL@@QEAA_NPEBD0H@Z
        547  222 000148A0 ?WriteMemoryPixels@spoutGL@@IEAA_NPEBDPEBEIII_N@Z
        548  223 00022B60 ?WritePathToRegistry@spoututils@@YA_NPEAUHKEY__@@PEBD11@Z
        549  224 00014AA0 ?WritePixelData@spoutGL@@IEAA_NPEBEPEAUID3D11Texture2D@@III_N@Z
        550  225 00014CB0 ?WriteTexture@spoutGL@@QEAA_NPEAPEAUID3D11Texture2D@@@Z
        551  226 00014E50 ?WriteTextureReadback@spoutGL@@QEAA_NPEAPEAUID3D11Texture2D@@IIIIII_NI@Z
        552  227 00015150 ?WriteTextureReadback@spoutGL@@QEAA_NPEAPEAUID3D11Texture2D@@IIII_NI@Z
        553  228 00022D00 ?_conprint@spoututils@@YAHPEBDZZ
        554  229 00022DA0 ?_doLog@spoututils@@YAXW4SpoutLogLevel@1@PEBDPEAD@Z
        555  22A 000079A0 ?bgr2bgra@spoutCopy@@QEBAXPEBXPEAXII_N@Z
        556  22B 00007A50 ?bgr2rgba@spoutCopy@@QEBAXPEBXPEAXIII_N@Z
        557  22C 00007B20 ?bgr2rgba@spoutCopy@@QEBAXPEBXPEAXII_N@Z
        558  22D 00007BD0 ?bgra2bgr@spoutCopy@@QEBAXPEBXPEAXII_N@Z
        559  22E 00007C80 ?bgra2rgb@spoutCopy@@QEBAXPEBXPEAXII_N@Z
        560  22F 00007D30 ?bgra2rgba@spoutCopy@@QEBAXPEBXPEAXII_N@Z
        561  230 0001B220 ?cleanSenderSet@spoutSenderNames@@IEAAXXZ
        562  231 0001B600 ?getActiveSenderName@spoutSenderNames@@IEAA_NPEADH@Z
        563  232 0001B680 ?getSharedInfo@spoutSenderNames@@QEAA_NPEBDPEAUSharedTextureInfo@@@Z
        564  233 0001B700 ?hasSharedInfo@spoutSenderNames@@QEAA_NPEBD@Z
        565  234 00007DE0 ?memcpy_sse2@spoutCopy@@QEBAXPEAXPEBX_K@Z
        566  235 0001B760 ?readSenderSetFromBuffer@spoutSenderNames@@KAXPEBDAEAV?$set@V?$basic_string@DU?$char_traits@D@std@@V?$allocator@D@2@@std@@U?$less@V?$basic_string@DU?$char_traits@D@std@@V?$allocator@D@2@@std@@@2@V?$allocator@V?$basic_string@DU?$char_traits@D@std@@V?$allocator@D@2@@std@@@2@@std@@H@Z
        567  236 000081C0 ?rgb2bgra@spoutCopy@@QEBAXPEBXPEAXIII_N@Z
        568  237 00007B20 ?rgb2bgra@spoutCopy@@QEBAXPEBXPEAXII_N@Z
        569  238 00007A50 ?rgb2rgba@spoutCopy@@QEBAXPEBXPEAXIII_N@Z
        570  239 000079A0 ?rgb2rgba@spoutCopy@@QEBAXPEBXPEAXII_N@Z
        571  23A 00008290 ?rgb_to_bgra_sse3@spoutCopy@@QEBAXPEAX0II@Z
        572  23B 00008410 ?rgb_to_bgrx_sse@spoutCopy@@QEBAXIPEBXPEAX@Z
        573  23C 00008530 ?rgba2bgr@spoutCopy@@QEBAXPEBXPEAXIII_N@Z
        574  23D 00007C80 ?rgba2bgr@spoutCopy@@QEBAXPEBXPEAXII_N@Z
        575  23E 000085F0 ?rgba2bgrResample@spoutCopy@@QEBAXPEBXPEAXIIIII_N@Z
        576  23F 00008820 ?rgba2bgra@spoutCopy@@QEBAXPEBXPEAXIIII_N@Z
        577  240 00008A50 ?rgba2bgra@spoutCopy@@QEBAXPEBXPEAXIII_N@Z
        578  241 00007D30 ?rgba2bgra@spoutCopy@@QEBAXPEBXPEAXII_N@Z
        579  242 00008C70 ?rgba2rgb@spoutCopy@@QEBAXPEBXPEAXIII_N22@Z
        580  243 00008E80 ?rgba2rgbResample@spoutCopy@@QEBAXPEBXPEAXIIIII_N22@Z
        581  244 00009130 ?rgba2rgba@spoutCopy@@QEBAXPEBXPEAXIIII_N@Z
        582  245 00009260 ?rgba2rgba@spoutCopy@@QEBAXPEBXPEAXIII_N@Z
        583  246 00009370 ?rgba2rgbaResample@spoutCopy@@QEBAXPEBXPEAXIIIII_N@Z
        584  247 000095C0 ?rgba_bgra@spoutCopy@@IEBAXPEBXPEAXII_N@Z
        585  248 00009680 ?rgba_bgra_sse2@spoutCopy@@IEBAXPEBXPEAXII_N@Z
        586  249 000097E0 ?rgba_bgra_sse3@spoutCopy@@IEBAXPEBXPEAXII_N@Z
        587  24A 00009970 ?rgba_swap_ssse3@spoutCopy@@IEAAXPEIAXII@Z
        588  24B 00009AC0 ?rgba_to_rgb_sse3@spoutCopy@@QEBAXPEBXPEAXIII_N2@Z
        589  24C 0001B9D0 ?setActiveSenderName@spoutSenderNames@@IEAA_NPEBD@Z
        590  24D 0001BA90 ?setSharedInfo@spoutSenderNames@@QEAA_NPEBDPEBUSharedTextureInfo@@@Z
        591  24E 000151A0 ?trim@spoutGL@@IEAAXPEAD@Z
        592  24F 0001BB00 ?writeBufferFromSenderSet@spoutSenderNames@@KAXAEBV?$set@V?$basic_string@DU?$char_traits@D@std@@V?$allocator@D@2@@std@@U?$less@V?$basic_string@DU?$char_traits@D@std@@V?$allocator@D@2@@std@@@2@V?$allocator@V?$basic_string@DU?$char_traits@D@std@@V?$allocator@D@2@@std@@@2@@std@@PEADH@Z

  Summary

        2000 .data
        3000 .pdata
       19000 .rdata
        1000 .reloc
        1000 .rsrc
       29000 .text
